target datalayout = "e-m:e-p270:32:32-p271:32:32-p272:64:64-i64:64-i128:128-f80:128-n8:16:32:64-S128"
target triple = "x86_64-pc-linux-gnu"

%struct._extcap_callback_info_t = type { ptr, ptr, ptr, ptr, ptr }

; Function Attrs: null_pointer_is_valid sspstrong uwtable
define internal zeroext i1 @cb_verify_filter(ptr noundef byval(%struct._extcap_callback_info_t) align 8 %0) #0 {
  %2 = alloca ptr, align 8
  %3 = alloca i64, align 8
  %4 = alloca i64, align 8
  call void @llvm.lifetime.start.p0(i64 8, ptr %2) #9
  %5 = getelementptr inbounds nuw %struct._extcap_callback_info_t, ptr %0, i32 0, i32 3
  %6 = load ptr, ptr %5, align 8
  store ptr %6, ptr %2, align 8
  call void @llvm.lifetime.start.p0(i64 8, ptr %3) #9
  call void @llvm.lifetime.start.p0(i64 8, ptr %4) #9
  %7 = getelementptr inbounds nuw %struct._extcap_callback_info_t, ptr %0, i32 0, i32 2
  %8 = load ptr, ptr %7, align 8
  %9 = call i64 @strlen(ptr noundef %8) #12
  store i64 %9, ptr %3, align 8
  %10 = load i64, ptr %3, align 8
  %11 = icmp eq i64 %10, 0
  br i1 %11, label %12, label %14

12:                                               ; preds = %1
  %13 = load ptr, ptr %2, align 8
  store i32 1, ptr %13, align 4
  br label %51

14:                                               ; preds = %1
  %15 = load ptr, ptr %2, align 8
  store i32 2, ptr %15, align 4
  store i64 0, ptr %4, align 8
  br label %16

16:                                               ; preds = %42, %14
  %17 = load i64, ptr %4, align 8
  %18 = load i64, ptr %3, align 8
  %19 = icmp ult i64 %17, %18
  br i1 %19, label %20, label %45

20:                                               ; preds = %16
  %21 = getelementptr inbounds nuw %struct._extcap_callback_info_t, ptr %0, i32 0, i32 2
  %22 = load ptr, ptr %21, align 8
  %23 = load i64, ptr %4, align 8
  %24 = getelementptr i8, ptr %22, i64 %23
  %25 = load i8, ptr %24, align 1
  %26 = sext i8 %25 to i32
  %27 = icmp eq i32 %26, 10
  br i1 %27, label %36, label %28

28:                                               ; preds = %20
  %29 = getelementptr inbounds nuw %struct._extcap_callback_info_t, ptr %0, i32 0, i32 2
  %30 = load ptr, ptr %29, align 8
  %31 = load i64, ptr %4, align 8
  %32 = getelementptr i8, ptr %30, i64 %31
  %33 = load i8, ptr %32, align 1
  %34 = sext i8 %33 to i32
  %35 = icmp eq i32 %34, 13
  br i1 %35, label %36, label %41

36:                                               ; preds = %28, %20
  %37 = getelementptr inbounds nuw %struct._extcap_callback_info_t, ptr %0, i32 0, i32 2
  %38 = load ptr, ptr %37, align 8
  %39 = load i64, ptr %4, align 8
  %40 = getelementptr i8, ptr %38, i64 %39
  store i8 0, ptr %40, align 1
  br label %45

41:                                               ; preds = %28
  br label %42

42:                                               ; preds = %41
  %43 = load i64, ptr %4, align 8
  %44 = add i64 %43, 1
  store i64 %44, ptr %4, align 8
  br label %16, !llvm.loop !22

45:                                               ; preds = %36, %16
  %46 = getelementptr inbounds nuw %struct._extcap_callback_info_t, ptr %0, i32 0, i32 2
  %47 = load ptr, ptr %46, align 8
  %48 = call noalias ptr @g_strdup(ptr noundef %47)
  %49 = getelementptr inbounds nuw %struct._extcap_callback_info_t, ptr %0, i32 0, i32 4
  %50 = load ptr, ptr %49, align 8
  store ptr %48, ptr %50, align 8
  br label %51

51:                                               ; preds = %45, %12
  call void @llvm.lifetime.end.p0(i64 8, ptr %4) #9
  call void @llvm.lifetime.end.p0(i64 8, ptr %3) #9
  call void @llvm.lifetime.end.p0(i64 8, ptr %2) #9
  ret i1 true
}