; Function Attrs: null_pointer_is_valid sspstrong uwtable
define internal noundef zeroext i1 @cb_verify_filter(ptr noundef readonly byval(%struct._extcap_callback_info_t) align 8 captures(none) %0) #0 {
  %2 = getelementptr inbounds nuw i8, ptr %0, i64 24
  %3 = load ptr, ptr %2, align 8
  %4 = getelementptr inbounds nuw i8, ptr %0, i64 16
  %5 = load ptr, ptr %4, align 8
  %6 = tail call i64 @strlen(ptr noundef %5) #12
  %7 = icmp eq i64 %6, 0
  br i1 %7, label %8, label %9

8:                                                ; preds = %1
  store i32 1, ptr %3, align 4
  br label %20

9:                                                ; preds = %1
  store i32 2, ptr %3, align 4
  br label %10

10:                                               ; preds = %9, %15
  %.010 = phi i64 [ 0, %9 ], [ %16, %15 ]
  %11 = getelementptr i8, ptr %5, i64 %.010
  %12 = load i8, ptr %11, align 1
  switch i8 %12, label %15 [
    i8 10, label %13
    i8 13, label %13
  ]

13:                                               ; preds = %10, %10
  %14 = getelementptr i8, ptr %5, i64 %.010
  store i8 0, ptr %14, align 1
  br label %.loopexit

15:                                               ; preds = %10
  %16 = add nuw i64 %.010, 1
  %exitcond.not = icmp eq i64 %16, %6
  br i1 %exitcond.not, label %.loopexit, label %10, !llvm.loop !31

.loopexit:                                        ; preds = %15, %13
  %17 = tail call noalias ptr @g_strdup(ptr noundef %5)
  %18 = getelementptr inbounds nuw i8, ptr %0, i64 32
  %19 = load ptr, ptr %18, align 8
  store ptr %17, ptr %19, align 8
  br label %20

20:                                               ; preds = %.loopexit, %8
  ret i1 true
}